target datalayout = "e-m:e-p270:32:32-p271:32:32-p272:64:64-i64:64-i128:128-f80:128-n8:16:32:64-S128"
target triple = "x86_64-pc-linux-gnu"

@.str.22 = private unnamed_addr constant [5 x i8] c"priv\00", align 1
@.str.23 = private unnamed_addr constant [4 x i8] c"pub\00", align 1

; Function Attrs: nounwind uwtable
define internal i32 @dsa_key_todata(ptr noundef %0, ptr noundef %1, ptr noundef %2, i32 noundef %3) #0 {
  %5 = alloca i32, align 4
  %6 = alloca ptr, align 8
  %7 = alloca ptr, align 8
  %8 = alloca ptr, align 8
  %9 = alloca i32, align 4
  %10 = alloca ptr, align 8
  %11 = alloca ptr, align 8
  %12 = alloca i32, align 4
  store ptr %0, ptr %6, align 8, !tbaa !27
  store ptr %1, ptr %7, align 8, !tbaa !50
  store ptr %2, ptr %8, align 8, !tbaa !9
  store i32 %3, ptr %9, align 4, !tbaa !7
  call void @llvm.lifetime.start.p0(i64 8, ptr %10) #7
  store ptr null, ptr %10, align 8, !tbaa !49
  call void @llvm.lifetime.start.p0(i64 8, ptr %11) #7
  store ptr null, ptr %11, align 8, !tbaa !49
  %13 = load ptr, ptr %6, align 8, !tbaa !27
  %14 = icmp eq ptr %13, null
  br i1 %14, label %15, label %16

15:                                               ; preds = %4
  store i32 0, ptr %5, align 4
  store i32 1, ptr %12, align 4
  br label %41

16:                                               ; preds = %4
  %17 = load ptr, ptr %6, align 8, !tbaa !27
  call void @DSA_get0_key(ptr noundef %17, ptr noundef %11, ptr noundef %10)
  %18 = load i32, ptr %9, align 4, !tbaa !7
  %19 = icmp ne i32 %18, 0
  br i1 %19, label %20, label %30

20:                                               ; preds = %16
  %21 = load ptr, ptr %10, align 8, !tbaa !49
  %22 = icmp ne ptr %21, null
  br i1 %22, label %23, label %30

23:                                               ; preds = %20
  %24 = load ptr, ptr %7, align 8, !tbaa !50
  %25 = load ptr, ptr %8, align 8, !tbaa !9
  %26 = load ptr, ptr %10, align 8, !tbaa !49
  %27 = call i32 @ossl_param_build_set_bn(ptr noundef %24, ptr noundef %25, ptr noundef @.str.22, ptr noundef %26)
  %28 = icmp ne i32 %27, 0
  br i1 %28, label %30, label %29

29:                                               ; preds = %23
  store i32 0, ptr %5, align 4
  store i32 1, ptr %12, align 4
  br label %41

30:                                               ; preds = %23, %20, %16
  %31 = load ptr, ptr %11, align 8, !tbaa !49
  %32 = icmp ne ptr %31, null
  br i1 %32, label %33, label %40

33:                                               ; preds = %30
  %34 = load ptr, ptr %7, align 8, !tbaa !50
  %35 = load ptr, ptr %8, align 8, !tbaa !9
  %36 = load ptr, ptr %11, align 8, !tbaa !49
  %37 = call i32 @ossl_param_build_set_bn(ptr noundef %34, ptr noundef %35, ptr noundef @.str.23, ptr noundef %36)
  %38 = icmp ne i32 %37, 0
  br i1 %38, label %40, label %39

39:                                               ; preds = %33
  store i32 0, ptr %5, align 4
  store i32 1, ptr %12, align 4
  br label %41

40:                                               ; preds = %33, %30
  store i32 1, ptr %5, align 4
  store i32 1, ptr %12, align 4
  br label %41

41:                                               ; preds = %40, %39, %29, %15
  call void @llvm.lifetime.end.p0(i64 8, ptr %11) #7
  call void @llvm.lifetime.end.p0(i64 8, ptr %10) #7
  %42 = load i32, ptr %5, align 4
  ret i32 %42
}

; Function Attrs: nounwind uwtable
define internal i32 @dsa_export(ptr noundef %0, i32 noundef %1, ptr noundef %2, ptr noundef %3) #0 {
  %5 = alloca i32, align 4
  %6 = alloca ptr, align 8
  %7 = alloca i32, align 4
  %8 = alloca ptr, align 8
  %9 = alloca ptr, align 8
  %10 = alloca ptr, align 8
  %11 = alloca ptr, align 8
  %12 = alloca ptr, align 8
  %13 = alloca i32, align 4
  %14 = alloca i32, align 4
  %15 = alloca i32, align 4
  store ptr %0, ptr %6, align 8, !tbaa !3
  store i32 %1, ptr %7, align 4, !tbaa !7
  store ptr %2, ptr %8, align 8, !tbaa !3
  store ptr %3, ptr %9, align 8, !tbaa !3
  call void @llvm.lifetime.start.p0(i64 8, ptr %10) #7
  %16 = load ptr, ptr %6, align 8, !tbaa !3
  store ptr %16, ptr %10, align 8, !tbaa !27
  call void @llvm.lifetime.start.p0(i64 8, ptr %11) #7
  call void @llvm.lifetime.start.p0(i64 8, ptr %12) #7
  store ptr null, ptr %12, align 8, !tbaa !9
  call void @llvm.lifetime.start.p0(i64 4, ptr %13) #7
  store i32 1, ptr %13, align 4, !tbaa !7
  %17 = call i32 @ossl_prov_is_running()
  %18 = icmp ne i32 %17, 0
  br i1 %18, label %19, label %22

19:                                               ; preds = %4
  %20 = load ptr, ptr %10, align 8, !tbaa !27
  %21 = icmp eq ptr %20, null
  br i1 %21, label %22, label %23

22:                                               ; preds = %19, %4
  store i32 0, ptr %5, align 4
  store i32 1, ptr %14, align 4
  br label %86

23:                                               ; preds = %19
  %24 = load i32, ptr %7, align 4, !tbaa !7
  %25 = and i32 %24, 7
  %26 = icmp eq i32 %25, 0
  br i1 %26, label %27, label %28

27:                                               ; preds = %23
  store i32 0, ptr %5, align 4
  store i32 1, ptr %14, align 4
  br label %86

28:                                               ; preds = %23
  %29 = call ptr @OSSL_PARAM_BLD_new()
  store ptr %29, ptr %11, align 8, !tbaa !50
  %30 = load ptr, ptr %11, align 8, !tbaa !50
  %31 = icmp eq ptr %30, null
  br i1 %31, label %32, label %33

32:                                               ; preds = %28
  store i32 0, ptr %5, align 4
  store i32 1, ptr %14, align 4
  br label %86

33:                                               ; preds = %28
  %34 = load i32, ptr %7, align 4, !tbaa !7
  %35 = and i32 %34, 132
  %36 = icmp ne i32 %35, 0
  br i1 %36, label %37, label %49

37:                                               ; preds = %33
  %38 = load i32, ptr %13, align 4, !tbaa !7
  %39 = icmp ne i32 %38, 0
  br i1 %39, label %40, label %46

40:                                               ; preds = %37
  %41 = load ptr, ptr %10, align 8, !tbaa !27
  %42 = call ptr @ossl_dsa_get0_params(ptr noundef %41)
  %43 = load ptr, ptr %11, align 8, !tbaa !50
  %44 = call i32 @ossl_ffc_params_todata(ptr noundef %42, ptr noundef %43, ptr noundef null)
  %45 = icmp ne i32 %44, 0
  br label %46

46:                                               ; preds = %40, %37
  %47 = phi i1 [ false, %37 ], [ %45, %40 ]
  %48 = zext i1 %47 to i32
  store i32 %48, ptr %13, align 4, !tbaa !7
  br label %49

49:                                               ; preds = %46, %33
  %50 = load i32, ptr %7, align 4, !tbaa !7
  %51 = and i32 %50, 3
  %52 = icmp ne i32 %51, 0
  br i1 %52, label %53, label %69

53:                                               ; preds = %49
  call void @llvm.lifetime.start.p0(i64 4, ptr %15) #7
  %54 = load i32, ptr %7, align 4, !tbaa !7
  %55 = and i32 %54, 1
  %56 = icmp ne i32 %55, 0
  %57 = select i1 %56, i32 1, i32 0
  store i32 %57, ptr %15, align 4, !tbaa !7
  %58 = load i32, ptr %13, align 4, !tbaa !7
  %59 = icmp ne i32 %58, 0
  br i1 %59, label %60, label %66

60:                                               ; preds = %53
  %61 = load ptr, ptr %10, align 8, !tbaa !27
  %62 = load ptr, ptr %11, align 8, !tbaa !50
  %63 = load i32, ptr %15, align 4, !tbaa !7
  %64 = call i32 @dsa_key_todata(ptr noundef %61, ptr noundef %62, ptr noundef null, i32 noundef %63)
  %65 = icmp ne i32 %64, 0
  br label %66

66:                                               ; preds = %60, %53
  %67 = phi i1 [ false, %53 ], [ %65, %60 ]
  %68 = zext i1 %67 to i32
  store i32 %68, ptr %13, align 4, !tbaa !7
  call void @llvm.lifetime.end.p0(i64 4, ptr %15) #7
  br label %69

69:                                               ; preds = %66, %49
  %70 = load i32, ptr %13, align 4, !tbaa !7
  %71 = icmp ne i32 %70, 0
  br i1 %71, label %72, label %76

72:                                               ; preds = %69
  %73 = load ptr, ptr %11, align 8, !tbaa !50
  %74 = call ptr @OSSL_PARAM_BLD_to_param(ptr noundef %73)
  store ptr %74, ptr %12, align 8, !tbaa !9
  %75 = icmp eq ptr %74, null
  br i1 %75, label %76, label %77

76:                                               ; preds = %72, %69
  store i32 0, ptr %13, align 4, !tbaa !7
  br label %83

77:                                               ; preds = %72
  %78 = load ptr, ptr %8, align 8, !tbaa !3
  %79 = load ptr, ptr %12, align 8, !tbaa !9
  %80 = load ptr, ptr %9, align 8, !tbaa !3
  %81 = call i32 %78(ptr noundef %79, ptr noundef %80)
  store i32 %81, ptr %13, align 4, !tbaa !7
  %82 = load ptr, ptr %12, align 8, !tbaa !9
  call void @OSSL_PARAM_free(ptr noundef %82)
  br label %83

83:                                               ; preds = %77, %76
  %84 = load ptr, ptr %11, align 8, !tbaa !50
  call void @OSSL_PARAM_BLD_free(ptr noundef %84)
  %85 = load i32, ptr %13, align 4, !tbaa !7
  store i32 %85, ptr %5, align 4
  store i32 1, ptr %14, align 4
  br label %86

86:                                               ; preds = %83, %32, %27, %22
  call void @llvm.lifetime.end.p0(i64 4, ptr %13) #7
  call void @llvm.lifetime.end.p0(i64 8, ptr %12) #7
  call void @llvm.lifetime.end.p0(i64 8, ptr %11) #7
  call void @llvm.lifetime.end.p0(i64 8, ptr %10) #7
  %87 = load i32, ptr %5, align 4
  ret i32 %87
}