; Function Attrs: nounwind uwtable
define internal i32 @dsa_export(ptr noundef %0, i32 noundef %1, ptr noundef readonly captures(none) %2, ptr noundef %3) #0 {
  %5 = alloca ptr, align 8
  %6 = alloca ptr, align 8
  %7 = tail call i32 @ossl_prov_is_running() #7
  %8 = icmp eq i32 %7, 0
  %9 = icmp eq ptr %0, null
  %or.cond = or i1 %9, %8
  %10 = and i32 %1, 7
  %11 = icmp eq i32 %10, 0
  %or.cond32 = or i1 %11, %or.cond
  br i1 %or.cond32, label %38, label %12

12:                                               ; preds = %4
  %13 = tail call ptr @OSSL_PARAM_BLD_new() #7
  %14 = icmp eq ptr %13, null
  br i1 %14, label %38, label %15

15:                                               ; preds = %12
  %16 = and i32 %1, 132
  %.not = icmp eq i32 %16, 0
  br i1 %.not, label %.thread, label %17

17:                                               ; preds = %15
  %18 = tail call ptr @ossl_dsa_get0_params(ptr noundef nonnull %0) #7
  %19 = tail call i32 @ossl_ffc_params_todata(ptr noundef %18, ptr noundef nonnull %13, ptr noundef null) #7
  %.not45 = icmp eq i32 %19, 0
  %20 = and i32 %1, 3
  %.not27 = icmp eq i32 %20, 0
  br i1 %.not27, label %33, label %22

.thread:                                          ; preds = %15
  %21 = and i32 %1, 3
  %.not2734 = icmp eq i32 %21, 0
  br i1 %.not2734, label %.thread42, label %.thread36

22:                                               ; preds = %17
  br i1 %.not45, label %.thread39, label %.thread36

.thread36:                                        ; preds = %.thread, %22
  %23 = and i32 %1, 1
  call void @llvm.lifetime.start.p0(i64 8, ptr nonnull %5) #7
  store ptr null, ptr %5, align 8, !tbaa !45
  call void @llvm.lifetime.start.p0(i64 8, ptr nonnull %6) #7
  store ptr null, ptr %6, align 8, !tbaa !45
  call void @DSA_get0_key(ptr noundef nonnull %0, ptr noundef nonnull %6, ptr noundef nonnull %5) #7
  %24 = icmp ne i32 %23, 0
  %25 = load ptr, ptr %5, align 8
  %26 = icmp ne ptr %25, null
  %or.cond.i = select i1 %24, i1 %26, i1 false
  br i1 %or.cond.i, label %27, label %29

27:                                               ; preds = %.thread36
  %28 = call i32 @ossl_param_build_set_bn(ptr noundef nonnull %13, ptr noundef null, ptr noundef nonnull @.str.22, ptr noundef nonnull %25) #7
  %.not.i = icmp eq i32 %28, 0
  br i1 %.not.i, label %dsa_key_todata.exit.thread, label %29

29:                                               ; preds = %27, %.thread36
  %30 = load ptr, ptr %6, align 8, !tbaa !45
  %.not11.i = icmp eq ptr %30, null
  br i1 %.not11.i, label %dsa_key_todata.exit, label %31

31:                                               ; preds = %29
  %32 = call i32 @ossl_param_build_set_bn(ptr noundef nonnull %13, ptr noundef null, ptr noundef nonnull @.str.23, ptr noundef nonnull %30) #7
  %.not12.i = icmp eq i32 %32, 0
  br i1 %.not12.i, label %dsa_key_todata.exit.thread, label %dsa_key_todata.exit

dsa_key_todata.exit.thread:                       ; preds = %27, %31
  call void @llvm.lifetime.end.p0(i64 8, ptr nonnull %6) #7
  call void @llvm.lifetime.end.p0(i64 8, ptr nonnull %5) #7
  br label %.thread39

dsa_key_todata.exit:                              ; preds = %29, %31
  call void @llvm.lifetime.end.p0(i64 8, ptr nonnull %6) #7
  call void @llvm.lifetime.end.p0(i64 8, ptr nonnull %5) #7
  br label %.thread42

33:                                               ; preds = %17
  br i1 %.not45, label %.thread39, label %.thread42

.thread42:                                        ; preds = %dsa_key_todata.exit, %.thread, %33
  %34 = call ptr @OSSL_PARAM_BLD_to_param(ptr noundef nonnull %13) #7
  %35 = icmp eq ptr %34, null
  br i1 %35, label %.thread39, label %36

36:                                               ; preds = %.thread42
  %37 = call i32 %2(ptr noundef nonnull %34, ptr noundef %3) #7
  call void @OSSL_PARAM_free(ptr noundef nonnull %34) #7
  br label %.thread39

.thread39:                                        ; preds = %dsa_key_todata.exit.thread, %22, %33, %.thread42, %36
  %.2 = phi i32 [ %37, %36 ], [ 0, %.thread42 ], [ 0, %33 ], [ 0, %22 ], [ 0, %dsa_key_todata.exit.thread ]
  call void @OSSL_PARAM_BLD_free(ptr noundef nonnull %13) #7
  br label %38

38:                                               ; preds = %12, %4, %.thread39
  %.0 = phi i32 [ %.2, %.thread39 ], [ 0, %4 ], [ 0, %12 ]
  ret i32 %.0
}